#include <math.h>
#include <stdio.h>
#include <stdlib.h>
#include <string.h>
#include <iostream>
using namespace std;

//**************************************************
//*??????????.cpp                        *
//*??????                                    *
//*?????2011.10.26                            *
//*???????????                          *
//**************************************************

int main()
{
	int n=0,i=0,j=0; int num[100]; //??????n???????????????0???????i,j??????0???????num,????????
	cin>>n;
	for(i=0;i<n;i++) //????????
	{
		cin>>num[i];
	}
	j=n-1; //?????
    do
	{	cout<<num[j];
	    if(j>0)
		{
			cout<<" ";
		}
		j--;
	}while(j>=0);
	return 0;
}